(lp0
(lp1
I0
acnumpy.core.multiarray
scalar
p2
(cnumpy
dtype
p3
(S'f8'
p4
I0
I1
tp5
Rp6
(I3
S'<'
p7
NNNI-1
I-1
I0
tp8
bS'\xbfi\x10\xc3`8\xe8?'
p9
tp10
Rp11
ag2
(g3
(S'f4'
p12
I0
I1
tp13
Rp14
(I3
S'<'
p15
NNNI-1
I-1
I0
tp16
bS'\x00\x00\x00?'
p17
tp18
Rp19
ag2
(g6
S'{,\xee\x9b\xa3@\xd4?'
p20
tp21
Rp22
aI1
aI1
aI1
aI3
aI10
aF0.5641310214996338
aI1
aa(lp23
I1
ag2
(g6
S'm\x05\xcb\x8fs?\xe6?'
p24
tp25
Rp26
ag2
(g14
S'\x00\x00\x00?'
p27
tp28
Rp29
ag2
(g6
S'\xa0\x1cx\x06\xa8\xb0\xb3?'
p30
tp31
Rp32
aI2
aI2
aI2
aI6
aI10
aF0.8752388954162598
aI2
aa(lp33
I2
ag2
(g6
S'\xce,@\xca\x06\xbf\xe5?'
p34
tp35
Rp36
ag2
(g14
S'\x00\x00\x00?'
p37
tp38
Rp39
ag2
(g6
S'\x14@b\xc1PA\xb7?'
p40
tp41
Rp42
aI3
aI3
aI3
aI9
aI10
aF1.0731980800628662
aI2
aa(lp43
I3
ag2
(g6
S'\x9fg\xa0\xc3\x13-\xe4?'
p44
tp45
Rp46
ag2
(g14
S'\x9a\x99\x19?'
p47
tp48
Rp49
ag2
(g6
S'\x10\xa8$\xcci\x9b\xc9?'
p50
tp51
Rp52
aI4
aI4
aI4
aI12
aI10
aF1.307805061340332
aI4
aa(lp53
I4
ag46
ag2
(g14
S'\x9a\x99\x19?'
p54
tp55
Rp56
ag2
(g6
S'\x10\xa8$\xcci\x9b\xc9?'
p57
tp58
Rp59
aI5
aI5
aI5
aI15
aI10
aF1.4928619861602783
aF2.0
aa(lp60
I5
ag46
ag2
(g14
S'\x9a\x99\x19?'
p61
tp62
Rp63
ag2
(g6
S'\x10\xa8$\xcci\x9b\xc9?'
p64
tp65
Rp66
aI6
aI6
aI6
aI18
aI10
aF1.6996049880981445
aF1.0
aa(lp67
I6
ag2
(g6
S'\xbf\x8b\xe0#\x07|\xe2?'
p68
tp69
Rp70
ag2
(g14
S'\x85\xebQ?'
p71
tp72
Rp73
ag2
(g6
S'5WcH#\xab\xcb?'
p74
tp75
Rp76
aI7
aI7
aI7
aI21
aI10
aF1.8986470699310303
aF1.0
aa(lp77
I7
ag2
(g6
S'N\x1d\x84q\xe0\xd4\xdf?'
p78
tp79
Rp80
ag2
(g14
S'\x14\xaeG?'
p81
tp82
Rp83
ag2
(g6
S'\x81\xce\xdb\xd081\xc3?'
p84
tp85
Rp86
aI8
aI8
aI8
aI24
aI10
aF2.1121370792388916
aF1.0
aa(lp87
I8
ag2
(g6
S'\xbd\x12\xb6\xac\xec\t\xdb?'
p88
tp89
Rp90
ag2
(g14
S'R\xb8^?'
p91
tp92
Rp93
ag2
(g6
S'-\x82\x9eK__\xbe?'
p94
tp95
Rp96
aI9
aI9
aI9
aI27
aI10
aF2.3221309185028076
aF2.0
aa(lp97
I9
ag2
(g6
S'\xce\xf6\x94\xec$\xae\xd5?'
p98
tp99
Rp100
ag2
(g14
S'\xe1zT?'
p101
tp102
Rp103
ag2
(g6
S'\xb1\xfb\x04\xa6\xc2\x1f\xb3?'
p104
tp105
Rp106
aI10
aI10
aI10
aI30
aI10
aF2.564138889312744
aF4.0
aa(lp107
I10
ag100
ag2
(g14
S'\xe1zT?'
p108
tp109
Rp110
ag2
(g6
S'\xb1\xfb\x04\xa6\xc2\x1f\xb3?'
p111
tp112
Rp113
aI11
aI11
aI11
aI33
aI10
aF2.79461407661438
aF2.0
aa(lp114
I11
ag100
ag2
(g14
S'\xe1zT?'
p115
tp116
Rp117
ag2
(g6
S'\xb1\xfb\x04\xa6\xc2\x1f\xb3?'
p118
tp119
Rp120
aI12
aI12
aI12
aI36
aI10
aF2.983212947845459
aF1.0
aa(lp121
I12
ag100
ag2
(g14
S'\xe1zT?'
p122
tp123
Rp124
ag2
(g6
S'\xb1\xfb\x04\xa6\xc2\x1f\xb3?'
p125
tp126
Rp127
aI13
aI13
aI13
aI39
aI10
aF3.18391489982605
aF0.5
aa(lp128
I13
ag2
(g6
S'\x1c\xa8|\xfb\xd4\xdb\xd4?'
p129
tp130
Rp131
ag2
(g14
S'\xaeGa?'
p132
tp133
Rp134
ag2
(g6
S'\xd5\x80az\xea@\xa2?'
p135
tp136
Rp137
aI14
aI14
aI14
aI42
aI10
aF3.408785104751587
aF0.5
aa(lp138
I14
ag2
(g6
S'\xe5V\xd8\xe3\x8e\x84\xd4?'
p139
tp140
Rp141
ag2
(g14
S'=\nW?'
p142
tp143
Rp144
ag2
(g6
S'\x85\xe3\x1bA\xd4C\xab?'
p145
tp146
Rp147
aI15
aI15
aI15
aI45
aI10
aF3.648300886154175
aF0.5
aa(lp148
I15
ag2
(g6
S'\x0e\x17\x08X/\x02\xd4?'
p149
tp150
Rp151
ag2
(g14
S'\xf6(\\?'
p152
tp153
Rp154
ag2
(g6
S'\xa98\x8d,\x04S\x95?'
p155
tp156
Rp157
aI16
aI16
aI16
aI48
aI10
aF3.837692975997925
aF1.0
aa(lp158
I16
ag2
(g6
S'# <\xc5\xa1j\xd3?'
p159
tp160
Rp161
ag2
(g14
S'\xf6(\\?'
p162
tp163
Rp164
ag2
(g6
S'x0\x0b*>\x0e\xa1?'
p165
tp166
Rp167
aI17
aI17
aI17
aI51
aI10
aF4.054593086242676
aF2.0
aa(lp168
I17
ag161
ag2
(g14
S'\xf6(\\?'
p169
tp170
Rp171
ag2
(g6
S'x0\x0b*>\x0e\xa1?'
p172
tp173
Rp174
aI18
aI18
aI18
aI54
aI10
aF4.220589876174927
aF1.0
aa(lp175
I18
ag2
(g6
S'=\xfe\xf0r(2\xd3?'
p176
tp177
Rp178
ag2
(g14
S'\x85\xebQ?'
p179
tp180
Rp181
ag2
(g6
S'\xdf\x03\x82\xe1\xe1l\xc5?'
p182
tp183
Rp184
aI19
aI19
aI19
aI57
aI10
aF4.408884048461914
aF1.0
aa(lp185
I19
ag2
(g6
S']\xa9\xe6-@\x95\xd2?'
p186
tp187
Rp188
ag2
(g14
S'\xf6(\\?'
p189
tp190
Rp191
ag2
(g6
S'0\x16\xfdEp\xef\xb1?'
p192
tp193
Rp194
aI20
aI20
aI20
aI60
aI10
aF4.623905897140503
aF1.0
aa(lp195
I20
ag2
(g6
S'\x1f\xc6~=!9\xd2?'
p196
tp197
Rp198
ag2
(g14
S'\xe1zT?'
p199
tp200
Rp201
ag2
(g6
S'L7CYvy\xa9?'
p202
tp203
Rp204
aI21
aI21
aI21
aI63
aI10
aF4.827118873596191
aF1.0
aa(lp205
I21
ag2
(g6
S'S6\x1ew\x8d\xa3\xd1?'
p206
tp207
Rp208
ag2
(g14
S'\x9a\x99Y?'
p209
tp210
Rp211
ag2
(g6
S'\x90qx\x10\xa2\xc8\xa3?'
p212
tp213
Rp214
aI22
aI22
aI22
aI66
aI10
aF5.051961898803711
aF2.0
aa(lp215
I22
ag208
ag2
(g14
S'\x9a\x99Y?'
p216
tp217
Rp218
ag2
(g6
S'\x90qx\x10\xa2\xc8\xa3?'
p219
tp220
Rp221
aI23
aI23
aI23
aI69
aI10
aF5.240300893783569
aF1.0
aa(lp222
I23
ag2
(g6
S'\xfd\xe0,\xaa/&\xd1?'
p223
tp224
Rp225
ag2
(g14
S'\xe1zT?'
p226
tp227
Rp228
ag2
(g6
S'\xae\xc5\xc3u\x19:\xaa?'
p229
tp230
Rp231
aI24
aI24
aI24
aI72
aI10
aF5.4428019523620605
aF1.0
aa(lp232
I24
ag2
(g6
S'\x91n\xff\xddc\x0c\xd0?'
p233
tp234
Rp235
ag2
(g14
S'\xf6(\\?'
p236
tp237
Rp238
ag2
(g6
S'\xf7u`\t\x03\xdb\x97?'
p239
tp240
Rp241
aI25
aI25
aI25
aI75
aI10
aF5.624152898788452
aF2.0
aa(lp242
I25
ag2
(g6
S'M`\x01)4\xe6\xcf?'
p243
tp244
Rp245
ag2
(g14
S'\xf6(\\?'
p246
tp247
Rp248
ag2
(g6
S'\xe9\x90\xaa\xdb\x93\xb8\xc6?'
p249
tp250
Rp251
aI26
aI26
aI26
aI78
aI10
aF5.819897890090942
aF1.0
aa(lp252
I26
ag2
(g6
S'sLC]\xa3:\xcc?'
p253
tp254
Rp255
ag2
(g14
S'\xf6(\\?'
p256
tp257
Rp258
ag2
(g6
S'\xf9\xa5\x9b{\xdfG\xc0?'
p259
tp260
Rp261
aI27
aI27
aI27
aI81
aI10
aF6.013213872909546
aF1.0
aa(lp262
I27
ag2
(g6
S'\x7fF\xc3J\x8b\x8b\xca?'
p263
tp264
Rp265
ag2
(g14
S'\xaeGa?'
p266
tp267
Rp268
ag2
(g6
S'\x1c\xcf\x7f\x15`\xff\xae?'
p269
tp270
Rp271
aI28
aI28
aI28
aI84
aI10
aF6.210946083068848
aF1.0
aa(lp272
I28
ag2
(g6
S'\x83b\xc7\xc1\xbc\x0b\xca?'
p273
tp274
Rp275
ag2
(g14
S'R\xb8^?'
p276
tp277
Rp278
ag2
(g6
S'\x92\x1d\xa7\xecNj\xd5?'
p279
tp280
Rp281
aI29
aI29
aI29
aI87
aI10
aF6.4020280838012695
aF1.0
aa(lp282
I29
ag2
(g6
S'\x93\xa8\x0c\r\xbf#\xc9?'
p283
tp284
Rp285
ag2
(g14
S'fff?'
p286
tp287
Rp288
ag2
(g6
S'\x0bP\xc3\xc67\xcb\xc5?'
p289
tp290
Rp291
aI30
aI30
aI30
aI90
aI10
aF6.63359808921814
aF1.0
aa(lp292
I30
ag2
(g6
S'\x1b@X\xd3\x1a#\xc8?'
p293
tp294
Rp295
ag2
(g14
S'R\xb8^?'
p296
tp297
Rp298
ag2
(g6
S'\xae\xbb\xad\xf1\xa0G\xd7?'
p299
tp300
Rp301
aI31
aI31
aI31
aI93
aI10
aF6.8434789180755615
aF1.0
aa(lp302
I31
ag2
(g6
S'\xfb\x9b\x83\x93s\x8d\xc4?'
p303
tp304
Rp305
ag2
(g14
S'\xd7\xa3p?'
p306
tp307
Rp308
ag2
(g6
S' 2\xa3[\xa8!\xe8?'
p309
tp310
Rp311
aI32
aI32
aI32
aI96
aI10
aF7.019865036010742
aF1.0
aa(lp312
I32
ag2
(g6
S'\x03\x92\xa3\xe5d"\xc2?'
p313
tp314
Rp315
ag2
(g14
S'fff?'
p316
tp317
Rp318
ag2
(g6
S'\xf0\x8cZ!Q\xa6\xc6?'
p319
tp320
Rp321
aI33
aI33
aI33
aI99
aI10
aF7.212146997451782
aF1.0
aa(lp322
I33
ag2
(g6
S'\x8cU]\x15\x9b\xaf\xc0?'
p323
tp324
Rp325
ag2
(g14
S'\x8f\xc2u?'
p326
tp327
Rp328
ag2
(g6
S'\xd8\x91\x16\x17\x18\xb9\xd5?'
p329
tp330
Rp331
aI34
aI34
aI34
aI102
aI10
aF7.434514045715332
aF1.0
aa(lp332
I34
ag325
ag2
(g14
S'\x8f\xc2u?'
p333
tp334
Rp335
ag2
(g6
S'\xd8\x91\x16\x17\x18\xb9\xd5?'
p336
tp337
Rp338
aI35
aI35
aI35
aI105
aI10
aF7.6767919063568115
aF0.5
aa(lp339
I35
ag2
(g6
S'V\x0cnq\xa0=\xb6?'
p340
tp341
Rp342
ag2
(g14
S'\xa4p}?'
p343
tp344
Rp345
ag2
(g6
S'O\x06\\\xde*!\xc4?'
p346
tp347
Rp348
aI36
aI36
aI36
aI108
aI10
aF7.8857550621032715
aF1.0
aa(lp349
I36
ag2
(g6
S'Wa\x90W\x93\xb8\xab?'
p350
tp351
Rp352
ag2
(g14
S'\x00\x00\x80?'
p353
tp354
Rp355
ag2
(g6
S'`g\xd5\xd1\xf9\xec\xdb?'
p356
tp357
Rp358
aI37
aI37
aI37
aI111
aI10
aF8.124665021896362
aF2.0
aa.